target datalayout = "e-m:e-p270:32:32-p271:32:32-p272:64:64-i64:64-i128:128-f80:128-n8:16:32:64-S128"
target triple = "x86_64-pc-linux-gnu"

%"class.llvm::StringRef" = type { ptr, i64 }
%"class.llvm::SmallVectorBase" = type { ptr, i32, i32 }
%struct.tm = type { i32, i32, i32, i32, i32, i32, i32, i32, i32, i64, ptr }
%"class.(anonymous namespace)::MasmParser" = type { %"class.llvm::MCAsmParser.base", [6 x i8], %"class.llvm::AsmLexer", ptr, ptr, ptr, ptr, ptr, ptr, %"class.std::unique_ptr", i32, %struct.tm, %"class.llvm::BitVector", %"class.llvm::AsmCond", %"class.std::vector", %"class.llvm::StringMap", %"class.llvm::StringMap.15", %"class.llvm::SmallVector.16", %"class.llvm::StringMap.21", %"class.llvm::StringMap.22", %"class.std::vector.23", %"class.std::deque", i32, [4 x i8], %"struct.(anonymous namespace)::MasmParser::CppHashInfoTy", %"class.llvm::StringRef", %"class.llvm::SmallVector.31", i32, i8, i8, i8, i32, i16, %"class.llvm::StringMap.36", %"class.llvm::StringMap.37", %"class.llvm::StringMap.38" }
%"class.llvm::MCAsmParser.base" = type <{ ptr, ptr, %"class.llvm::SmallVector", i8, i8 }>
%"class.llvm::SmallVector" = type { %"class.llvm::SmallVectorImpl" }
%"class.llvm::SmallVectorImpl" = type { %"class.llvm::SmallVectorTemplateBase" }
%"class.llvm::SmallVectorTemplateBase" = type { %"class.llvm::SmallVectorTemplateCommon" }
%"class.llvm::SmallVectorTemplateCommon" = type { %"class.llvm::SmallVectorBase" }
%"class.llvm::AsmLexer" = type <{ %"class.llvm::MCAsmLexer", ptr, ptr, %"class.llvm::StringRef", i8, i8, i8, i8, [4 x i8] }>
%"class.llvm::MCAsmLexer" = type { ptr, %"class.llvm::SmallVector.0", %"class.llvm::SMLoc", %"class.std::__cxx11::basic_string", ptr, i8, i8, i8, i8, i8, i8, i8, i8, i8, i32, i8, i8, ptr }
%"class.llvm::SmallVector.0" = type { %"class.llvm::SmallVectorImpl.1", %"struct.llvm::SmallVectorStorage.4" }
%"class.llvm::SmallVectorImpl.1" = type { %"class.llvm::SmallVectorTemplateBase.2" }
%"class.llvm::SmallVectorTemplateBase.2" = type { %"class.llvm::SmallVectorTemplateCommon.3" }
%"class.llvm::SmallVectorTemplateCommon.3" = type { %"class.llvm::SmallVectorBase" }
%"struct.llvm::SmallVectorStorage.4" = type { [40 x i8] }
%"class.llvm::SMLoc" = type { ptr }
%"class.std::__cxx11::basic_string" = type { %"struct.std::__cxx11::basic_string<char>::_Alloc_hider", i64, %union.anon }
%"struct.std::__cxx11::basic_string<char>::_Alloc_hider" = type { ptr }
%union.anon = type { i64, [8 x i8] }
%"class.std::unique_ptr" = type { %"struct.std::__uniq_ptr_data" }
%"struct.std::__uniq_ptr_data" = type { %"class.std::__uniq_ptr_impl" }
%"class.std::__uniq_ptr_impl" = type { %"class.std::tuple" }
%"class.std::tuple" = type { %"struct.std::_Tuple_impl" }
%"struct.std::_Tuple_impl" = type { %"struct.std::_Head_base.6" }
%"struct.std::_Head_base.6" = type { ptr }
%"class.llvm::BitVector" = type <{ %"class.llvm::SmallVector.7", i32, [4 x i8] }>
%"class.llvm::SmallVector.7" = type { %"class.llvm::SmallVectorImpl.8", %"struct.llvm::SmallVectorStorage.11" }
%"class.llvm::SmallVectorImpl.8" = type { %"class.llvm::SmallVectorTemplateBase.9" }
%"class.llvm::SmallVectorTemplateBase.9" = type { %"class.llvm::SmallVectorTemplateCommon.10" }
%"class.llvm::SmallVectorTemplateCommon.10" = type { %"class.llvm::SmallVectorBase" }
%"struct.llvm::SmallVectorStorage.11" = type { [48 x i8] }
%"class.llvm::AsmCond" = type <{ i32, i8, i8, [2 x i8] }>
%"class.std::vector" = type { %"struct.std::_Vector_base" }
%"struct.std::_Vector_base" = type { %"struct.std::_Vector_base<llvm::AsmCond, std::allocator<llvm::AsmCond>>::_Vector_impl" }
%"struct.std::_Vector_base<llvm::AsmCond, std::allocator<llvm::AsmCond>>::_Vector_impl" = type { %"struct.std::_Vector_base<llvm::AsmCond, std::allocator<llvm::AsmCond>>::_Vector_impl_data" }
%"struct.std::_Vector_base<llvm::AsmCond, std::allocator<llvm::AsmCond>>::_Vector_impl_data" = type { ptr, ptr, ptr }
%"class.llvm::StringMap" = type { %"class.llvm::StringMapImpl" }
%"class.llvm::StringMapImpl" = type { ptr, i32, i32, i32, i32 }
%"class.llvm::StringMap.15" = type { %"class.llvm::StringMapImpl" }
%"class.llvm::SmallVector.16" = type { %"class.llvm::SmallVectorImpl.17", %"struct.llvm::SmallVectorStorage.20" }
%"class.llvm::SmallVectorImpl.17" = type { %"class.llvm::SmallVectorTemplateBase.18" }
%"class.llvm::SmallVectorTemplateBase.18" = type { %"class.llvm::SmallVectorTemplateCommon.19" }
%"class.llvm::SmallVectorTemplateCommon.19" = type { %"class.llvm::SmallVectorBase" }
%"struct.llvm::SmallVectorStorage.20" = type { [88 x i8] }
%"class.llvm::StringMap.21" = type { %"class.llvm::StringMapImpl" }
%"class.llvm::StringMap.22" = type { %"class.llvm::StringMapImpl" }
%"class.std::vector.23" = type { %"struct.std::_Vector_base.24" }
%"struct.std::_Vector_base.24" = type { %"struct.std::_Vector_base<(anonymous namespace)::MacroInstantiation *, std::allocator<(anonymous namespace)::MacroInstantiation *>>::_Vector_impl" }
%"struct.std::_Vector_base<(anonymous namespace)::MacroInstantiation *, std::allocator<(anonymous namespace)::MacroInstantiation *>>::_Vector_impl" = type { %"struct.std::_Vector_base<(anonymous namespace)::MacroInstantiation *, std::allocator<(anonymous namespace)::MacroInstantiation *>>::_Vector_impl_data" }
%"struct.std::_Vector_base<(anonymous namespace)::MacroInstantiation *, std::allocator<(anonymous namespace)::MacroInstantiation *>>::_Vector_impl_data" = type { ptr, ptr, ptr }
%"class.std::deque" = type { %"class.std::_Deque_base" }
%"class.std::_Deque_base" = type { %"struct.std::_Deque_base<llvm::MCAsmMacro, std::allocator<llvm::MCAsmMacro>>::_Deque_impl" }
%"struct.std::_Deque_base<llvm::MCAsmMacro, std::allocator<llvm::MCAsmMacro>>::_Deque_impl" = type { %"struct.std::_Deque_base<llvm::MCAsmMacro, std::allocator<llvm::MCAsmMacro>>::_Deque_impl_data" }
%"struct.std::_Deque_base<llvm::MCAsmMacro, std::allocator<llvm::MCAsmMacro>>::_Deque_impl_data" = type { ptr, i64, %"struct.std::_Deque_iterator", %"struct.std::_Deque_iterator" }
%"struct.std::_Deque_iterator" = type { ptr, ptr, ptr, ptr }
%"struct.(anonymous namespace)::MasmParser::CppHashInfoTy" = type <{ %"class.llvm::StringRef", i64, %"class.llvm::SMLoc", i32, [4 x i8] }>
%"class.llvm::SmallVector.31" = type { %"class.llvm::SmallVectorImpl.32", %"struct.llvm::SmallVectorStorage.35" }
%"class.llvm::SmallVectorImpl.32" = type { %"class.llvm::SmallVectorTemplateBase.33" }
%"class.llvm::SmallVectorTemplateBase.33" = type { %"class.llvm::SmallVectorTemplateCommon.34" }
%"class.llvm::SmallVectorTemplateCommon.34" = type { %"class.llvm::SmallVectorBase" }
%"struct.llvm::SmallVectorStorage.35" = type { [224 x i8] }
%"class.llvm::StringMap.36" = type { %"class.llvm::StringMapImpl" }
%"class.llvm::StringMap.37" = type { %"class.llvm::StringMapImpl" }
%"class.llvm::StringMap.38" = type { %"class.llvm::StringMapImpl" }
%"struct.std::pair.236" = type { i32, i32 }
%"struct.(anonymous namespace)::MacroInstantiation" = type { %"class.llvm::SMLoc", i32, %"class.llvm::SMLoc", i64 }
%"class.__gnu_cxx::__normal_iterator.655" = type { ptr }
%"class.__gnu_cxx::__normal_iterator.502" = type { ptr }

; Function Attrs: mustprogress nounwind uwtable
define internal void @_ZN9__gnu_cxx17__normal_iteratorIPPN12_GLOBAL__N_118MacroInstantiationESt6vectorIS3_SaIS3_EEEC2ERKS4_(ptr noundef nonnull align 8 dereferenceable(8) %0, ptr noundef nonnull align 8 dereferenceable(8) %1) unnamed_addr #0 align 2 {
  %3 = alloca ptr, align 8
  %4 = alloca ptr, align 8
  store ptr %0, ptr %3, align 8
  store ptr %1, ptr %4, align 8
  %5 = load ptr, ptr %3, align 8
  %6 = getelementptr inbounds nuw %"class.__gnu_cxx::__normal_iterator.502", ptr %5, i32 0, i32 0
  %7 = load ptr, ptr %4, align 8
  %8 = load ptr, ptr %7, align 8
  store ptr %8, ptr %6, align 8
  ret void
}

; Function Attrs: mustprogress nounwind uwtable
define internal noundef nonnull align 8 dereferenceable(8) ptr @_ZNK9__gnu_cxx17__normal_iteratorIPKPN12_GLOBAL__N_118MacroInstantiationESt6vectorIS3_SaIS3_EEE4baseEv(ptr noundef nonnull align 8 dereferenceable(8) %0) #0 align 2 {
  %2 = alloca ptr, align 8
  store ptr %0, ptr %2, align 8
  %3 = load ptr, ptr %2, align 8
  %4 = getelementptr inbounds nuw %"class.__gnu_cxx::__normal_iterator.655", ptr %3, i32 0, i32 0
  ret ptr %4
}

; Function Attrs: mustprogress nounwind uwtable
define internal void @_ZN9__gnu_cxx17__normal_iteratorIPKPN12_GLOBAL__N_118MacroInstantiationESt6vectorIS3_SaIS3_EEEC2ERKS5_(ptr noundef nonnull align 8 dereferenceable(8) %0, ptr noundef nonnull align 8 dereferenceable(8) %1) unnamed_addr #0 align 2 {
  %3 = alloca ptr, align 8
  %4 = alloca ptr, align 8
  store ptr %0, ptr %3, align 8
  store ptr %1, ptr %4, align 8
  %5 = load ptr, ptr %3, align 8
  %6 = getelementptr inbounds nuw %"class.__gnu_cxx::__normal_iterator.655", ptr %5, i32 0, i32 0
  %7 = load ptr, ptr %4, align 8
  %8 = load ptr, ptr %7, align 8
  store ptr %8, ptr %6, align 8
  ret void
}

; Function Attrs: mustprogress nounwind uwtable
define internal noundef nonnull align 8 dereferenceable(8) ptr @_ZNK9__gnu_cxx17__normal_iteratorIPPN12_GLOBAL__N_118MacroInstantiationESt6vectorIS3_SaIS3_EEEdeEv(ptr noundef nonnull align 8 dereferenceable(8) %0) #0 align 2 {
  %2 = alloca ptr, align 8
  store ptr %0, ptr %2, align 8
  %3 = load ptr, ptr %2, align 8
  %4 = getelementptr inbounds nuw %"class.__gnu_cxx::__normal_iterator.502", ptr %3, i32 0, i32 0
  %5 = load ptr, ptr %4, align 8
  ret ptr %5
}

; Function Attrs: mustprogress nounwind uwtable
define internal ptr @_ZNSt6vectorIPN12_GLOBAL__N_118MacroInstantiationESaIS2_EE5beginEv(ptr noundef nonnull align 8 dereferenceable(24) %0) #0 align 2 {
  %2 = alloca %"class.__gnu_cxx::__normal_iterator.502", align 8
  %3 = alloca ptr, align 8
  store ptr %0, ptr %3, align 8
  %4 = load ptr, ptr %3, align 8
  %5 = getelementptr inbounds nuw %"struct.std::_Vector_base.24", ptr %4, i32 0, i32 0
  %6 = getelementptr inbounds nuw %"struct.std::_Vector_base<(anonymous namespace)::MacroInstantiation *, std::allocator<(anonymous namespace)::MacroInstantiation *>>::_Vector_impl_data", ptr %5, i32 0, i32 0
  call void @_ZN9__gnu_cxx17__normal_iteratorIPPN12_GLOBAL__N_118MacroInstantiationESt6vectorIS3_SaIS3_EEEC2ERKS4_(ptr noundef nonnull align 8 dereferenceable(8) %2, ptr noundef nonnull align 8 dereferenceable(8) %6) #15
  %7 = getelementptr inbounds nuw %"class.__gnu_cxx::__normal_iterator.502", ptr %2, i32 0, i32 0
  %8 = load ptr, ptr %7, align 8
  ret ptr %8
}

; Function Attrs: mustprogress nounwind uwtable
define internal noundef zeroext i1 @_ZN9__gnu_cxxeqIPKPN12_GLOBAL__N_118MacroInstantiationESt6vectorIS3_SaIS3_EEEEbRKNS_17__normal_iteratorIT_T0_EESE_(ptr noundef nonnull align 8 dereferenceable(8) %0, ptr noundef nonnull align 8 dereferenceable(8) %1) #0 {
  %3 = alloca ptr, align 8
  %4 = alloca ptr, align 8
  store ptr %0, ptr %3, align 8
  store ptr %1, ptr %4, align 8
  %5 = load ptr, ptr %3, align 8
  %6 = call noundef nonnull align 8 dereferenceable(8) ptr @_ZNK9__gnu_cxx17__normal_iteratorIPKPN12_GLOBAL__N_118MacroInstantiationESt6vectorIS3_SaIS3_EEE4baseEv(ptr noundef nonnull align 8 dereferenceable(8) %5) #15
  %7 = load ptr, ptr %6, align 8
  %8 = load ptr, ptr %4, align 8
  %9 = call noundef nonnull align 8 dereferenceable(8) ptr @_ZNK9__gnu_cxx17__normal_iteratorIPKPN12_GLOBAL__N_118MacroInstantiationESt6vectorIS3_SaIS3_EEE4baseEv(ptr noundef nonnull align 8 dereferenceable(8) %8) #15
  %10 = load ptr, ptr %9, align 8
  %11 = icmp eq ptr %7, %10
  ret i1 %11
}

; Function Attrs: mustprogress nounwind uwtable
define internal ptr @_ZNKSt6vectorIPN12_GLOBAL__N_118MacroInstantiationESaIS2_EE3endEv(ptr noundef nonnull align 8 dereferenceable(24) %0) #0 align 2 {
  %2 = alloca %"class.__gnu_cxx::__normal_iterator.655", align 8
  %3 = alloca ptr, align 8
  store ptr %0, ptr %3, align 8
  %4 = load ptr, ptr %3, align 8
  %5 = getelementptr inbounds nuw %"struct.std::_Vector_base.24", ptr %4, i32 0, i32 0
  %6 = getelementptr inbounds nuw %"struct.std::_Vector_base<(anonymous namespace)::MacroInstantiation *, std::allocator<(anonymous namespace)::MacroInstantiation *>>::_Vector_impl_data", ptr %5, i32 0, i32 1
  call void @_ZN9__gnu_cxx17__normal_iteratorIPKPN12_GLOBAL__N_118MacroInstantiationESt6vectorIS3_SaIS3_EEEC2ERKS5_(ptr noundef nonnull align 8 dereferenceable(8) %2, ptr noundef nonnull align 8 dereferenceable(8) %6) #15
  %7 = getelementptr inbounds nuw %"class.__gnu_cxx::__normal_iterator.655", ptr %2, i32 0, i32 0
  %8 = load ptr, ptr %7, align 8
  ret ptr %8
}

; Function Attrs: mustprogress nounwind uwtable
define internal ptr @_ZNKSt6vectorIPN12_GLOBAL__N_118MacroInstantiationESaIS2_EE5beginEv(ptr noundef nonnull align 8 dereferenceable(24) %0) #0 align 2 {
  %2 = alloca %"class.__gnu_cxx::__normal_iterator.655", align 8
  %3 = alloca ptr, align 8
  store ptr %0, ptr %3, align 8
  %4 = load ptr, ptr %3, align 8
  %5 = getelementptr inbounds nuw %"struct.std::_Vector_base.24", ptr %4, i32 0, i32 0
  %6 = getelementptr inbounds nuw %"struct.std::_Vector_base<(anonymous namespace)::MacroInstantiation *, std::allocator<(anonymous namespace)::MacroInstantiation *>>::_Vector_impl_data", ptr %5, i32 0, i32 0
  call void @_ZN9__gnu_cxx17__normal_iteratorIPKPN12_GLOBAL__N_118MacroInstantiationESt6vectorIS3_SaIS3_EEEC2ERKS5_(ptr noundef nonnull align 8 dereferenceable(8) %2, ptr noundef nonnull align 8 dereferenceable(8) %6) #15
  %7 = getelementptr inbounds nuw %"class.__gnu_cxx::__normal_iterator.655", ptr %2, i32 0, i32 0
  %8 = load ptr, ptr %7, align 8
  ret ptr %8
}

; Function Attrs: mustprogress nounwind uwtable
define internal noundef nonnull align 8 dereferenceable(8) ptr @_ZNSt6vectorIPN12_GLOBAL__N_118MacroInstantiationESaIS2_EE5frontEv(ptr noundef nonnull align 8 dereferenceable(24) %0) #0 align 2 {
  %2 = alloca ptr, align 8
  %3 = alloca %"class.__gnu_cxx::__normal_iterator.502", align 8
  store ptr %0, ptr %2, align 8
  %4 = load ptr, ptr %2, align 8
  %5 = call ptr @_ZNSt6vectorIPN12_GLOBAL__N_118MacroInstantiationESaIS2_EE5beginEv(ptr noundef nonnull align 8 dereferenceable(24) %4) #15
  %6 = getelementptr inbounds nuw %"class.__gnu_cxx::__normal_iterator.502", ptr %3, i32 0, i32 0
  store ptr %5, ptr %6, align 8
  %7 = call noundef nonnull align 8 dereferenceable(8) ptr @_ZNK9__gnu_cxx17__normal_iteratorIPPN12_GLOBAL__N_118MacroInstantiationESt6vectorIS3_SaIS3_EEEdeEv(ptr noundef nonnull align 8 dereferenceable(8) %3) #15
  ret ptr %7
}

; Function Attrs: mustprogress nounwind uwtable
define linkonce_odr hidden noundef i32 @_ZNK4llvm9SourceMgr14FindLineNumberENS_5SMLocEj(ptr noundef nonnull align 8 dereferenceable(64) %0, ptr %1, i32 noundef %2) #0 comdat align 2 {
  %4 = alloca %"class.llvm::SMLoc", align 8
  %5 = alloca ptr, align 8
  %6 = alloca i32, align 4
  %7 = alloca %"struct.std::pair.236", align 4
  %8 = alloca %"class.llvm::SMLoc", align 8
  %9 = getelementptr inbounds nuw %"class.llvm::SMLoc", ptr %4, i32 0, i32 0
  store ptr %1, ptr %9, align 8
  store ptr %0, ptr %5, align 8
  store i32 %2, ptr %6, align 4
  %10 = load ptr, ptr %5, align 8
  call void @llvm.memcpy.p0.p0.i64(ptr align 8 %8, ptr align 8 %4, i64 8, i1 false)
  %11 = load i32, ptr %6, align 4
  %12 = getelementptr inbounds nuw %"class.llvm::SMLoc", ptr %8, i32 0, i32 0
  %13 = load ptr, ptr %12, align 8
  %14 = call i64 @_ZNK4llvm9SourceMgr16getLineAndColumnENS_5SMLocEj(ptr noundef nonnull align 8 dereferenceable(64) %10, ptr %13, i32 noundef %11)
  store i64 %14, ptr %7, align 4
  %15 = getelementptr inbounds nuw %"struct.std::pair.236", ptr %7, i32 0, i32 0
  %16 = load i32, ptr %15, align 4
  ret i32 %16
}

; Function Attrs: mustprogress nounwind uwtable
define internal noundef zeroext i1 @_ZNKSt6vectorIPN12_GLOBAL__N_118MacroInstantiationESaIS2_EE5emptyEv(ptr noundef nonnull align 8 dereferenceable(24) %0) #0 align 2 {
  %2 = alloca ptr, align 8
  %3 = alloca %"class.__gnu_cxx::__normal_iterator.655", align 8
  %4 = alloca %"class.__gnu_cxx::__normal_iterator.655", align 8
  store ptr %0, ptr %2, align 8
  %5 = load ptr, ptr %2, align 8
  %6 = call ptr @_ZNKSt6vectorIPN12_GLOBAL__N_118MacroInstantiationESaIS2_EE5beginEv(ptr noundef nonnull align 8 dereferenceable(24) %5) #15
  %7 = getelementptr inbounds nuw %"class.__gnu_cxx::__normal_iterator.655", ptr %3, i32 0, i32 0
  store ptr %6, ptr %7, align 8
  %8 = call ptr @_ZNKSt6vectorIPN12_GLOBAL__N_118MacroInstantiationESaIS2_EE3endEv(ptr noundef nonnull align 8 dereferenceable(24) %5) #15
  %9 = getelementptr inbounds nuw %"class.__gnu_cxx::__normal_iterator.655", ptr %4, i32 0, i32 0
  store ptr %8, ptr %9, align 8
  %10 = call noundef zeroext i1 @_ZN9__gnu_cxxeqIPKPN12_GLOBAL__N_118MacroInstantiationESt6vectorIS3_SaIS3_EEEEbRKNS_17__normal_iteratorIT_T0_EESE_(ptr noundef nonnull align 8 dereferenceable(8) %3, ptr noundef nonnull align 8 dereferenceable(8) %4) #15
  ret i1 %10
}

; Function Attrs: mustprogress nounwind uwtable
define internal noundef ptr @_ZN12_GLOBAL__N_110MasmParser20evaluateBuiltinValueENS0_13BuiltinSymbolEN4llvm5SMLocE(ptr noundef nonnull align 8 dereferenceable(1144) %0, i32 noundef %1, ptr %2) #0 align 2 {
  %4 = alloca ptr, align 8
  %5 = alloca %"class.llvm::SMLoc", align 8
  %6 = alloca ptr, align 8
  %7 = alloca i32, align 4
  %8 = alloca i64, align 8
  %9 = alloca %"class.llvm::SMLoc", align 8
  %10 = alloca %"class.llvm::SMLoc", align 8
  %11 = getelementptr inbounds nuw %"class.llvm::SMLoc", ptr %5, i32 0, i32 0
  store ptr %2, ptr %11, align 8
  store ptr %0, ptr %6, align 8
  store i32 %1, ptr %7, align 4
  %12 = load ptr, ptr %6, align 8
  %13 = load i32, ptr %7, align 4
  switch i32 %13, label %14 [
    i32 3, label %15
    i32 6, label %21
  ]

14:                                               ; preds = %3
  store ptr null, ptr %4, align 8
  br label %56

15:                                               ; preds = %3
  %16 = load ptr, ptr %12, align 8
  %17 = getelementptr inbounds ptr, ptr %16, i64 6
  %18 = load ptr, ptr %17, align 8
  %19 = call noundef nonnull align 8 dereferenceable(2432) ptr %18(ptr noundef nonnull align 8 dereferenceable(1144) %12)
  %20 = call noundef ptr @_ZN4llvm14MCConstantExpr6createElRNS_9MCContextEbj(i64 noundef 1427, ptr noundef nonnull align 8 dereferenceable(2432) %19, i1 noundef zeroext false, i32 noundef 0)
  store ptr %20, ptr %4, align 8
  br label %56

21:                                               ; preds = %3
  %22 = getelementptr inbounds nuw %"class.(anonymous namespace)::MasmParser", ptr %12, i32 0, i32 20
  %23 = call noundef zeroext i1 @_ZNKSt6vectorIPN12_GLOBAL__N_118MacroInstantiationESaIS2_EE5emptyEv(ptr noundef nonnull align 8 dereferenceable(24) %22) #15
  br i1 %23, label %24, label %33

24:                                               ; preds = %21
  %25 = getelementptr inbounds nuw %"class.(anonymous namespace)::MasmParser", ptr %12, i32 0, i32 6
  %26 = load ptr, ptr %25, align 8
  call void @llvm.memcpy.p0.p0.i64(ptr align 8 %9, ptr align 8 %5, i64 8, i1 false)
  %27 = getelementptr inbounds nuw %"class.(anonymous namespace)::MasmParser", ptr %12, i32 0, i32 10
  %28 = load i32, ptr %27, align 8
  %29 = getelementptr inbounds nuw %"class.llvm::SMLoc", ptr %9, i32 0, i32 0
  %30 = load ptr, ptr %29, align 8
  %31 = call noundef i32 @_ZNK4llvm9SourceMgr14FindLineNumberENS_5SMLocEj(ptr noundef nonnull align 8 dereferenceable(64) %26, ptr %30, i32 noundef %28)
  %32 = zext i32 %31 to i64
  store i64 %32, ptr %8, align 8
  br label %49

33:                                               ; preds = %21
  %34 = getelementptr inbounds nuw %"class.(anonymous namespace)::MasmParser", ptr %12, i32 0, i32 6
  %35 = load ptr, ptr %34, align 8
  %36 = getelementptr inbounds nuw %"class.(anonymous namespace)::MasmParser", ptr %12, i32 0, i32 20
  %37 = call noundef nonnull align 8 dereferenceable(8) ptr @_ZNSt6vectorIPN12_GLOBAL__N_118MacroInstantiationESaIS2_EE5frontEv(ptr noundef nonnull align 8 dereferenceable(24) %36) #15
  %38 = load ptr, ptr %37, align 8
  %39 = getelementptr inbounds nuw %"struct.(anonymous namespace)::MacroInstantiation", ptr %38, i32 0, i32 0
  call void @llvm.memcpy.p0.p0.i64(ptr align 8 %10, ptr align 8 %39, i64 8, i1 false)
  %40 = getelementptr inbounds nuw %"class.(anonymous namespace)::MasmParser", ptr %12, i32 0, i32 20
  %41 = call noundef nonnull align 8 dereferenceable(8) ptr @_ZNSt6vectorIPN12_GLOBAL__N_118MacroInstantiationESaIS2_EE5frontEv(ptr noundef nonnull align 8 dereferenceable(24) %40) #15
  %42 = load ptr, ptr %41, align 8
  %43 = getelementptr inbounds nuw %"struct.(anonymous namespace)::MacroInstantiation", ptr %42, i32 0, i32 1
  %44 = load i32, ptr %43, align 8
  %45 = getelementptr inbounds nuw %"class.llvm::SMLoc", ptr %10, i32 0, i32 0
  %46 = load ptr, ptr %45, align 8
  %47 = call noundef i32 @_ZNK4llvm9SourceMgr14FindLineNumberENS_5SMLocEj(ptr noundef nonnull align 8 dereferenceable(64) %35, ptr %46, i32 noundef %44)
  %48 = zext i32 %47 to i64
  store i64 %48, ptr %8, align 8
  br label %49

49:                                               ; preds = %33, %24
  %50 = load i64, ptr %8, align 8
  %51 = load ptr, ptr %12, align 8
  %52 = getelementptr inbounds ptr, ptr %51, i64 6
  %53 = load ptr, ptr %52, align 8
  %54 = call noundef nonnull align 8 dereferenceable(2432) ptr %53(ptr noundef nonnull align 8 dereferenceable(1144) %12)
  %55 = call noundef ptr @_ZN4llvm14MCConstantExpr6createElRNS_9MCContextEbj(i64 noundef %50, ptr noundef nonnull align 8 dereferenceable(2432) %54, i1 noundef zeroext false, i32 noundef 0)
  store ptr %55, ptr %4, align 8
  br label %56

56:                                               ; preds = %49, %15, %14
  %57 = load ptr, ptr %4, align 8
  ret ptr %57
}