; Function Attrs: mustprogress nounwind uwtable
define internal fastcc noundef ptr @_ZN12_GLOBAL__N_110MasmParser20evaluateBuiltinValueENS0_13BuiltinSymbolEN4llvm5SMLocE(ptr noundef nonnull align 8 dereferenceable(1144) %0, i32 noundef range(i32 1, 0) %1, ptr %2) unnamed_addr #0 align 2 {
  switch i32 %1, label %25 [
    i32 3, label %.sink.split
    i32 6, label %4
  ]

4:                                                ; preds = %3
  %5 = getelementptr inbounds nuw i8, ptr %0, i64 648
  %.val = load ptr, ptr %5, align 8
  %6 = getelementptr inbounds nuw i8, ptr %0, i64 656
  %.val6 = load ptr, ptr %6, align 8
  %7 = icmp eq ptr %.val, %.val6
  %8 = getelementptr inbounds nuw i8, ptr %0, i64 248
  %9 = load ptr, ptr %8, align 8
  br i1 %7, label %10, label %14

10:                                               ; preds = %4
  %11 = getelementptr inbounds nuw i8, ptr %0, i64 280
  %12 = load i32, ptr %11, align 8
  %13 = tail call i64 @_ZNK4llvm9SourceMgr16getLineAndColumnENS_5SMLocEj(ptr noundef nonnull align 8 dereferenceable(64) %9, ptr %2, i32 noundef %12) #24
  br label %19

14:                                               ; preds = %4
  %15 = load ptr, ptr %.val, align 8
  %.sroa.0.0.copyload = load ptr, ptr %15, align 8
  %16 = getelementptr inbounds nuw i8, ptr %15, i64 8
  %17 = load i32, ptr %16, align 8
  %18 = tail call i64 @_ZNK4llvm9SourceMgr16getLineAndColumnENS_5SMLocEj(ptr noundef nonnull align 8 dereferenceable(64) %9, ptr %.sroa.0.0.copyload, i32 noundef %17) #24
  br label %19

19:                                               ; preds = %14, %10
  %.05.in.in = phi i64 [ %13, %10 ], [ %18, %14 ]
  %.05 = and i64 %.05.in.in, 4294967295
  br label %.sink.split

.sink.split:                                      ; preds = %3, %19
  %.05.sink = phi i64 [ %.05, %19 ], [ 1427, %3 ]
  %20 = load ptr, ptr %0, align 8
  %21 = getelementptr inbounds nuw i8, ptr %20, i64 48
  %22 = load ptr, ptr %21, align 8
  %23 = tail call noundef nonnull align 8 dereferenceable(2432) ptr %22(ptr noundef nonnull align 8 dereferenceable(1144) %0) #24
  %24 = tail call noundef ptr @_ZN4llvm14MCConstantExpr6createElRNS_9MCContextEbj(i64 noundef %.05.sink, ptr noundef nonnull align 8 dereferenceable(2432) %23, i1 noundef zeroext false, i32 noundef 0) #24
  br label %25

25:                                               ; preds = %.sink.split, %3
  %.0 = phi ptr [ null, %3 ], [ %24, %.sink.split ]
  ret ptr %.0
}